target datalayout = "e-m:e-p270:32:32-p271:32:32-p272:64:64-i64:64-i128:128-f80:128-n8:16:32:64-S128"
target triple = "x86_64-pc-linux-gnu"

%struct.BEValue = type { i8, i32, ptr, ptr, ptr }
%struct.GenContext_ = type { i8, ptr, ptr, ptr, ptr, ptr, ptr, ptr, ptr, ptr, ptr, ptr, ptr, ptr, ptr, ptr, ptr, ptr, ptr, ptr, ptr, ptr, ptr, ptr, ptr, ptr, ptr, ptr, ptr, ptr, ptr, ptr, ptr, %struct.anon.85, i32, i32, %struct.DebugContext, ptr, ptr, ptr, %struct.BEValue, i8, %union.SourceSpan, ptr, ptr, ptr, ptr }
%struct.anon.85 = type { ptr, ptr, ptr }
%struct.DebugContext = type { i16, ptr, ptr, %struct.DebugFile_, ptr, ptr, ptr, ptr }
%struct.DebugFile_ = type { i16, ptr }
%union.SourceSpan = type { i64 }

@.str = private unnamed_addr constant [7 x i8] c".taddr\00", align 1
@.str.1 = private unnamed_addr constant [6 x i8] c"taddr\00", align 1
@type_anyfault = external global ptr, align 8
@.str.5 = private unnamed_addr constant [7 x i8] c"optval\00", align 1

; Function Attrs: nounwind uwtable
define dso_local void @llvm_value_set_address(ptr noundef %0, ptr noundef %1, ptr noundef %2, i32 noundef %3) #0 {
  %5 = alloca ptr, align 8
  %6 = alloca ptr, align 8
  %7 = alloca ptr, align 8
  %8 = alloca i32, align 4
  store ptr %0, ptr %5, align 8
  store ptr %1, ptr %6, align 8
  store ptr %2, ptr %7, align 8
  store i32 %3, ptr %8, align 4
  %9 = load ptr, ptr %6, align 8
  %10 = load ptr, ptr %5, align 8
  %11 = getelementptr inbounds %struct.BEValue, ptr %10, i32 0, i32 3
  store ptr %9, ptr %11, align 8
  %12 = load i32, ptr %8, align 4
  %13 = load ptr, ptr %5, align 8
  %14 = getelementptr inbounds %struct.BEValue, ptr %13, i32 0, i32 1
  store i32 %12, ptr %14, align 4
  %15 = load ptr, ptr %5, align 8
  %16 = load i8, ptr %15, align 8
  %17 = and i8 %16, -32
  %18 = or i8 %17, 1
  store i8 %18, ptr %15, align 8
  %19 = load ptr, ptr %7, align 8
  %20 = call ptr @type_lowering(ptr noundef %19)
  %21 = load ptr, ptr %5, align 8
  %22 = getelementptr inbounds %struct.BEValue, ptr %21, i32 0, i32 2
  store ptr %20, ptr %22, align 8
  ret void
}

; Function Attrs: nounwind uwtable
define dso_local void @llvm_value_set_address_abi_aligned(ptr noundef %0, ptr noundef %1, ptr noundef %2) #0 {
  %4 = alloca ptr, align 8
  %5 = alloca ptr, align 8
  %6 = alloca ptr, align 8
  store ptr %0, ptr %4, align 8
  store ptr %1, ptr %5, align 8
  store ptr %2, ptr %6, align 8
  %7 = load ptr, ptr %4, align 8
  %8 = load ptr, ptr %5, align 8
  %9 = load ptr, ptr %6, align 8
  %10 = call ptr @type_lowering(ptr noundef %9)
  %11 = load ptr, ptr %6, align 8
  %12 = call i32 @type_abi_alignment(ptr noundef %11)
  call void @llvm_value_set_address(ptr noundef %7, ptr noundef %8, ptr noundef %10, i32 noundef %12)
  ret void
}

; Function Attrs: nounwind uwtable
define dso_local void @llvm_value_fold_optional(ptr noundef %0, ptr noundef %1) #0 {
  %3 = alloca ptr, align 8
  %4 = alloca ptr, align 8
  store ptr %0, ptr %3, align 8
  store ptr %1, ptr %4, align 8
  %5 = load ptr, ptr %4, align 8
  %6 = load i8, ptr %5, align 8
  %7 = and i8 %6, 31
  %8 = zext i8 %7 to i32
  %9 = icmp eq i32 %8, 2
  br i1 %9, label %10, label %22

10:                                               ; preds = %2
  %11 = load ptr, ptr %3, align 8
  %12 = load ptr, ptr %3, align 8
  %13 = load ptr, ptr @type_anyfault, align 8
  %14 = load ptr, ptr %4, align 8
  %15 = getelementptr inbounds %struct.BEValue, ptr %14, i32 0, i32 4
  %16 = load ptr, ptr %15, align 8
  %17 = call ptr @llvm_load_abi_alignment(ptr noundef %12, ptr noundef %13, ptr noundef %16, ptr noundef @.str.5)
  call void @llvm_emit_jump_to_optional_exit(ptr noundef %11, ptr noundef %17)
  %18 = load ptr, ptr %4, align 8
  %19 = load i8, ptr %18, align 8
  %20 = and i8 %19, -32
  %21 = or i8 %20, 1
  store i8 %21, ptr %18, align 8
  br label %22

22:                                               ; preds = %10, %2
  ret void
}

; Function Attrs: nounwind uwtable
define dso_local void @llvm_value_addr(ptr noundef %0, ptr noundef %1) #0 {
  %3 = alloca i32, align 4
  %4 = alloca ptr, align 8
  %5 = alloca ptr, align 8
  %6 = alloca ptr, align 8
  %7 = alloca ptr, align 8
  %8 = alloca ptr, align 8
  %9 = alloca ptr, align 8
  %10 = alloca ptr, align 8
  %11 = alloca ptr, align 8
  %12 = alloca i32, align 4
  %13 = alloca ptr, align 8
  %14 = alloca ptr, align 8
  %15 = alloca ptr, align 8
  %16 = alloca ptr, align 8
  %17 = alloca ptr, align 8
  %18 = alloca ptr, align 8
  %19 = alloca ptr, align 8
  store ptr %0, ptr %15, align 8
  store ptr %1, ptr %16, align 8
  %20 = load ptr, ptr %15, align 8
  %21 = load ptr, ptr %16, align 8
  call void @llvm_value_fold_optional(ptr noundef %20, ptr noundef %21)
  %22 = load ptr, ptr %16, align 8
  %23 = load i8, ptr %22, align 8
  %24 = and i8 %23, 31
  %25 = zext i8 %24 to i32
  %26 = icmp eq i32 %25, 1
  br i1 %26, label %27, label %28

27:                                               ; preds = %2
  br label %109

28:                                               ; preds = %2
  %29 = load ptr, ptr %15, align 8
  store ptr %29, ptr %14, align 8
  %30 = load ptr, ptr %14, align 8
  %31 = getelementptr inbounds %struct.GenContext_, ptr %30, i32 0, i32 8
  %32 = load ptr, ptr %31, align 8
  %33 = load ptr, ptr %14, align 8
  %34 = getelementptr inbounds %struct.GenContext_, ptr %33, i32 0, i32 2
  %35 = load ptr, ptr %34, align 8
  %36 = icmp eq ptr %32, %35
  br i1 %36, label %37, label %72

37:                                               ; preds = %28
  %38 = load ptr, ptr %15, align 8
  %39 = load ptr, ptr %16, align 8
  %40 = call ptr @llvm_load_value_store(ptr noundef %38, ptr noundef %39)
  store ptr %40, ptr %17, align 8
  %41 = load ptr, ptr %15, align 8
  %42 = load ptr, ptr %17, align 8
  %43 = call ptr @LLVMTypeOf(ptr noundef %42)
  store ptr %41, ptr %9, align 8
  store ptr @.str, ptr %10, align 8
  store ptr %43, ptr %11, align 8
  store i32 0, ptr %12, align 4
  %44 = load ptr, ptr %9, align 8
  %45 = getelementptr inbounds %struct.GenContext_, ptr %44, i32 0, i32 1
  %46 = load ptr, ptr %45, align 8
  %47 = load ptr, ptr %11, align 8
  %48 = load ptr, ptr %10, align 8
  %49 = call ptr @LLVMAddGlobal(ptr noundef %46, ptr noundef %47, ptr noundef %48) #3
  store ptr %49, ptr %13, align 8
  %50 = load ptr, ptr %13, align 8
  %51 = load i32, ptr %12, align 4
  %52 = icmp ne i32 %51, 0
  br i1 %52, label %53, label %55

53:                                               ; preds = %37
  %54 = load i32, ptr %12, align 4
  br label %61

55:                                               ; preds = %37
  %56 = load ptr, ptr %9, align 8
  %57 = getelementptr inbounds %struct.GenContext_, ptr %56, i32 0, i32 4
  %58 = load ptr, ptr %57, align 8
  %59 = load ptr, ptr %13, align 8
  %60 = call i32 @LLVMPreferredAlignmentOfGlobal(ptr noundef %58, ptr noundef %59) #3
  br label %61

61:                                               ; preds = %55, %53
  %62 = phi i32 [ %54, %53 ], [ %60, %55 ]
  call void @LLVMSetAlignment(ptr noundef %50, i32 noundef %62) #3
  %63 = load ptr, ptr %13, align 8
  store ptr %63, ptr %18, align 8
  %64 = load ptr, ptr %18, align 8
  call void @llvm_set_private_linkage(ptr noundef %64)
  %65 = load ptr, ptr %18, align 8
  %66 = load ptr, ptr %17, align 8
  call void @LLVMSetInitializer(ptr noundef %65, ptr noundef %66)
  %67 = load ptr, ptr %16, align 8
  %68 = load ptr, ptr %18, align 8
  %69 = load ptr, ptr %16, align 8
  %70 = getelementptr inbounds %struct.BEValue, ptr %69, i32 0, i32 2
  %71 = load ptr, ptr %70, align 8
  call void @llvm_value_set_address_abi_aligned(ptr noundef %67, ptr noundef %68, ptr noundef %71)
  br label %109

72:                                               ; preds = %28
  %73 = load ptr, ptr %15, align 8
  %74 = load ptr, ptr %16, align 8
  %75 = getelementptr inbounds %struct.BEValue, ptr %74, i32 0, i32 2
  %76 = load ptr, ptr %75, align 8
  %77 = call ptr @llvm_emit_alloca_aligned(ptr noundef %73, ptr noundef %76, ptr noundef @.str.1)
  store ptr %77, ptr %19, align 8
  %78 = load ptr, ptr %15, align 8
  %79 = load ptr, ptr %19, align 8
  %80 = load ptr, ptr %16, align 8
  store ptr %78, ptr %6, align 8
  store ptr %79, ptr %7, align 8
  store ptr %80, ptr %8, align 8
  %81 = load ptr, ptr %6, align 8
  %82 = load ptr, ptr %7, align 8
  %83 = load ptr, ptr %8, align 8
  %84 = load ptr, ptr %7, align 8
  %85 = load ptr, ptr %8, align 8
  %86 = getelementptr inbounds %struct.BEValue, ptr %85, i32 0, i32 2
  %87 = load ptr, ptr %86, align 8
  store ptr %84, ptr %4, align 8
  store ptr %87, ptr %5, align 8
  %88 = load ptr, ptr %4, align 8
  %89 = call ptr @LLVMIsAAllocaInst(ptr noundef %88) #3
  %90 = icmp ne ptr %89, null
  br i1 %90, label %95, label %91

91:                                               ; preds = %72
  %92 = load ptr, ptr %4, align 8
  %93 = call ptr @LLVMIsAGlobalVariable(ptr noundef %92) #3
  %94 = icmp ne ptr %93, null
  br i1 %94, label %95, label %98

95:                                               ; preds = %91, %72
  %96 = load ptr, ptr %4, align 8
  %97 = call i32 @LLVMGetAlignment(ptr noundef %96) #3
  store i32 %97, ptr %3, align 4
  br label %101

98:                                               ; preds = %91
  %99 = load ptr, ptr %5, align 8
  %100 = call i32 @type_abi_alignment(ptr noundef %99) #3
  store i32 %100, ptr %3, align 4
  br label %101

101:                                              ; preds = %98, %95
  %102 = load i32, ptr %3, align 4
  %103 = call ptr @llvm_store_to_ptr_aligned(ptr noundef %81, ptr noundef %82, ptr noundef %83, i32 noundef %102) #3
  %104 = load ptr, ptr %16, align 8
  %105 = load ptr, ptr %19, align 8
  %106 = load ptr, ptr %16, align 8
  %107 = getelementptr inbounds %struct.BEValue, ptr %106, i32 0, i32 2
  %108 = load ptr, ptr %107, align 8
  call void @llvm_value_set_address_abi_aligned(ptr noundef %104, ptr noundef %105, ptr noundef %108)
  br label %109

109:                                              ; preds = %101, %61, %27
  ret void
}