; Function Attrs: nounwind uwtable
define dso_local void @llvm_value_addr(ptr noundef %0, ptr noundef %1) local_unnamed_addr #0 {
  %3 = load i8, ptr %1, align 8
  %4 = and i8 %3, 31
  switch i8 %4, label %12 [
    i8 2, label %llvm_value_fold_optional.exit.thread
    i8 1, label %60
  ]

llvm_value_fold_optional.exit.thread:             ; preds = %2
  %5 = load ptr, ptr @type_anyfault, align 8
  %6 = getelementptr inbounds nuw i8, ptr %1, i64 24
  %7 = load ptr, ptr %6, align 8
  %8 = tail call ptr @llvm_load_abi_alignment(ptr noundef %0, ptr noundef %5, ptr noundef %7, ptr noundef nonnull @.str.5) #3
  tail call void @llvm_emit_jump_to_optional_exit(ptr noundef %0, ptr noundef %8)
  %9 = load i8, ptr %1, align 8
  %10 = and i8 %9, -32
  %11 = or disjoint i8 %10, 1
  store i8 %11, ptr %1, align 8
  br label %60

12:                                               ; preds = %2
  %13 = getelementptr inbounds nuw i8, ptr %0, i64 64
  %14 = load ptr, ptr %13, align 8
  %15 = getelementptr inbounds nuw i8, ptr %0, i64 16
  %16 = load ptr, ptr %15, align 8
  %17 = icmp eq ptr %14, %16
  br i1 %17, label %18, label %37

18:                                               ; preds = %12
  %19 = tail call ptr @llvm_load_value_store(ptr noundef nonnull %0, ptr noundef nonnull %1) #3
  %20 = tail call ptr @LLVMTypeOf(ptr noundef %19) #3
  %21 = getelementptr inbounds nuw i8, ptr %0, i64 8
  %22 = load ptr, ptr %21, align 8
  %23 = tail call ptr @LLVMAddGlobal(ptr noundef %22, ptr noundef %20, ptr noundef nonnull @.str) #3
  %24 = getelementptr inbounds nuw i8, ptr %0, i64 32
  %25 = load ptr, ptr %24, align 8
  %26 = tail call i32 @LLVMPreferredAlignmentOfGlobal(ptr noundef %25, ptr noundef %23) #3
  tail call void @LLVMSetAlignment(ptr noundef %23, i32 noundef %26) #3
  tail call void @llvm_set_private_linkage(ptr noundef %23) #3
  tail call void @LLVMSetInitializer(ptr noundef %23, ptr noundef %19) #3
  %27 = getelementptr inbounds nuw i8, ptr %1, i64 8
  %28 = load ptr, ptr %27, align 8
  %29 = tail call fastcc ptr @type_lowering(ptr noundef %28)
  %30 = tail call i32 @type_abi_alignment(ptr noundef %28) #3
  %31 = getelementptr inbounds nuw i8, ptr %1, i64 16
  store ptr %23, ptr %31, align 8
  %32 = getelementptr inbounds nuw i8, ptr %1, i64 4
  store i32 %30, ptr %32, align 4
  %33 = load i8, ptr %1, align 8
  %34 = and i8 %33, -32
  %35 = or disjoint i8 %34, 1
  store i8 %35, ptr %1, align 8
  %36 = tail call fastcc ptr @type_lowering(ptr noundef readonly %29)
  store ptr %36, ptr %27, align 8
  br label %60

37:                                               ; preds = %12
  %38 = getelementptr inbounds nuw i8, ptr %1, i64 8
  %39 = load ptr, ptr %38, align 8
  %40 = tail call ptr @llvm_emit_alloca_aligned(ptr noundef nonnull %0, ptr noundef %39, ptr noundef nonnull @.str.1) #3
  %41 = load ptr, ptr %38, align 8
  %42 = tail call ptr @LLVMIsAAllocaInst(ptr noundef %40) #3
  %.not = icmp eq ptr %42, null
  br i1 %.not, label %43, label %45

43:                                               ; preds = %37
  %44 = tail call ptr @LLVMIsAGlobalVariable(ptr noundef %40) #3
  %.not42 = icmp eq ptr %44, null
  br i1 %.not42, label %47, label %45

45:                                               ; preds = %43, %37
  %46 = tail call i32 @LLVMGetAlignment(ptr noundef %40) #3
  br label %49

47:                                               ; preds = %43
  %48 = tail call i32 @type_abi_alignment(ptr noundef %41) #3
  br label %49

49:                                               ; preds = %47, %45
  %.0 = phi i32 [ %46, %45 ], [ %48, %47 ]
  %50 = tail call ptr @llvm_store_to_ptr_aligned(ptr noundef nonnull %0, ptr noundef %40, ptr noundef nonnull %1, i32 noundef %.0) #3
  %51 = load ptr, ptr %38, align 8
  %52 = tail call fastcc ptr @type_lowering(ptr noundef %51)
  %53 = tail call i32 @type_abi_alignment(ptr noundef %51) #3
  %54 = getelementptr inbounds nuw i8, ptr %1, i64 16
  store ptr %40, ptr %54, align 8
  %55 = getelementptr inbounds nuw i8, ptr %1, i64 4
  store i32 %53, ptr %55, align 4
  %56 = load i8, ptr %1, align 8
  %57 = and i8 %56, -32
  %58 = or disjoint i8 %57, 1
  store i8 %58, ptr %1, align 8
  %59 = tail call fastcc ptr @type_lowering(ptr noundef readonly %52)
  store ptr %59, ptr %38, align 8
  br label %60

60:                                               ; preds = %2, %llvm_value_fold_optional.exit.thread, %49, %18
  ret void
}